target datalayout = "e-m:e-p270:32:32-p271:32:32-p272:64:64-i64:64-i128:128-f80:128-n8:16:32:64-S128"
target triple = "x86_64-pc-linux-gnu"

%struct.AVProbeData = type { ptr, ptr, i32, ptr }

; Function Attrs: nounwind uwtable
define internal i32 @cine_read_probe(ptr noundef %0) #0 {
  %2 = alloca i32, align 4
  %3 = alloca ptr, align 8
  %4 = alloca i32, align 4
  %5 = alloca i32, align 4
  store ptr %0, ptr %3, align 8, !tbaa !4
  call void @llvm.lifetime.start.p0(i64 4, ptr %4) #5
  %6 = load ptr, ptr %3, align 8, !tbaa !4
  %7 = getelementptr inbounds nuw %struct.AVProbeData, ptr %6, i32 0, i32 1
  %8 = load ptr, ptr %7, align 8, !tbaa !9
  %9 = getelementptr inbounds i8, ptr %8, i64 0
  %10 = load i8, ptr %9, align 1, !tbaa !13
  %11 = zext i8 %10 to i32
  %12 = icmp eq i32 %11, 67
  br i1 %12, label %13, label %77

13:                                               ; preds = %1
  %14 = load ptr, ptr %3, align 8, !tbaa !4
  %15 = getelementptr inbounds nuw %struct.AVProbeData, ptr %14, i32 0, i32 1
  %16 = load ptr, ptr %15, align 8, !tbaa !9
  %17 = getelementptr inbounds i8, ptr %16, i64 1
  %18 = load i8, ptr %17, align 1, !tbaa !13
  %19 = zext i8 %18 to i32
  %20 = icmp eq i32 %19, 73
  br i1 %20, label %21, label %77

21:                                               ; preds = %13
  %22 = load ptr, ptr %3, align 8, !tbaa !4
  %23 = getelementptr inbounds nuw %struct.AVProbeData, ptr %22, i32 0, i32 1
  %24 = load ptr, ptr %23, align 8, !tbaa !9
  %25 = getelementptr inbounds i8, ptr %24, i64 2
  %26 = load i16, ptr %25, align 1, !tbaa !13
  %27 = zext i16 %26 to i32
  store i32 %27, ptr %4, align 4, !tbaa !14
  %28 = icmp sge i32 %27, 44
  br i1 %28, label %29, label %77

29:                                               ; preds = %21
  %30 = load ptr, ptr %3, align 8, !tbaa !4
  %31 = getelementptr inbounds nuw %struct.AVProbeData, ptr %30, i32 0, i32 1
  %32 = load ptr, ptr %31, align 8, !tbaa !9
  %33 = getelementptr inbounds i8, ptr %32, i64 4
  %34 = load i16, ptr %33, align 1, !tbaa !13
  %35 = zext i16 %34 to i32
  %36 = icmp sle i32 %35, 2
  br i1 %36, label %37, label %77

37:                                               ; preds = %29
  %38 = load ptr, ptr %3, align 8, !tbaa !4
  %39 = getelementptr inbounds nuw %struct.AVProbeData, ptr %38, i32 0, i32 1
  %40 = load ptr, ptr %39, align 8, !tbaa !9
  %41 = getelementptr inbounds i8, ptr %40, i64 6
  %42 = load i16, ptr %41, align 1, !tbaa !13
  %43 = zext i16 %42 to i32
  %44 = icmp sle i32 %43, 1
  br i1 %44, label %45, label %77

45:                                               ; preds = %37
  %46 = load ptr, ptr %3, align 8, !tbaa !4
  %47 = getelementptr inbounds nuw %struct.AVProbeData, ptr %46, i32 0, i32 1
  %48 = load ptr, ptr %47, align 8, !tbaa !9
  %49 = getelementptr inbounds i8, ptr %48, i64 20
  %50 = load i32, ptr %49, align 1, !tbaa !13
  %51 = icmp ne i32 %50, 0
  br i1 %51, label %52, label %77

52:                                               ; preds = %45
  %53 = load ptr, ptr %3, align 8, !tbaa !4
  %54 = getelementptr inbounds nuw %struct.AVProbeData, ptr %53, i32 0, i32 1
  %55 = load ptr, ptr %54, align 8, !tbaa !9
  %56 = getelementptr inbounds i8, ptr %55, i64 24
  %57 = load i32, ptr %56, align 1, !tbaa !13
  %58 = load i32, ptr %4, align 4, !tbaa !14
  %59 = icmp uge i32 %57, %58
  br i1 %59, label %60, label %77

60:                                               ; preds = %52
  %61 = load ptr, ptr %3, align 8, !tbaa !4
  %62 = getelementptr inbounds nuw %struct.AVProbeData, ptr %61, i32 0, i32 1
  %63 = load ptr, ptr %62, align 8, !tbaa !9
  %64 = getelementptr inbounds i8, ptr %63, i64 28
  %65 = load i32, ptr %64, align 1, !tbaa !13
  %66 = load i32, ptr %4, align 4, !tbaa !14
  %67 = icmp uge i32 %65, %66
  br i1 %67, label %68, label %77

68:                                               ; preds = %60
  %69 = load ptr, ptr %3, align 8, !tbaa !4
  %70 = getelementptr inbounds nuw %struct.AVProbeData, ptr %69, i32 0, i32 1
  %71 = load ptr, ptr %70, align 8, !tbaa !9
  %72 = getelementptr inbounds i8, ptr %71, i64 32
  %73 = load i32, ptr %72, align 1, !tbaa !13
  %74 = load i32, ptr %4, align 4, !tbaa !14
  %75 = icmp uge i32 %73, %74
  br i1 %75, label %76, label %77

76:                                               ; preds = %68
  store i32 100, ptr %2, align 4
  store i32 1, ptr %5, align 4
  br label %78

77:                                               ; preds = %68, %60, %52, %45, %37, %29, %21, %13, %1
  store i32 0, ptr %2, align 4
  store i32 1, ptr %5, align 4
  br label %78

78:                                               ; preds = %77, %76
  call void @llvm.lifetime.end.p0(i64 4, ptr %4) #5
  %79 = load i32, ptr %2, align 4
  ret i32 %79
}