; Function Attrs: mustprogress nofree norecurse nosync nounwind willreturn memory(read, inaccessiblemem: none) uwtable
define internal range(i32 0, 101) i32 @cine_read_probe(ptr noundef readonly captures(none) %0) #0 {
  %2 = getelementptr inbounds nuw i8, ptr %0, i64 8
  %3 = load ptr, ptr %2, align 8, !tbaa !4
  %4 = load i8, ptr %3, align 1, !tbaa !11
  %5 = icmp eq i8 %4, 67
  br i1 %5, label %6, label %35

6:                                                ; preds = %1
  %7 = getelementptr inbounds nuw i8, ptr %3, i64 1
  %8 = load i8, ptr %7, align 1, !tbaa !11
  %9 = icmp eq i8 %8, 73
  br i1 %9, label %10, label %35

10:                                               ; preds = %6
  %11 = getelementptr inbounds nuw i8, ptr %3, i64 2
  %12 = load i16, ptr %11, align 1, !tbaa !11
  %13 = zext i16 %12 to i32
  %14 = icmp ugt i16 %12, 43
  br i1 %14, label %15, label %35

15:                                               ; preds = %10
  %16 = getelementptr inbounds nuw i8, ptr %3, i64 4
  %17 = load i16, ptr %16, align 1, !tbaa !11
  %18 = icmp ult i16 %17, 3
  br i1 %18, label %19, label %35

19:                                               ; preds = %15
  %20 = getelementptr inbounds nuw i8, ptr %3, i64 6
  %21 = load i16, ptr %20, align 1, !tbaa !11
  %22 = icmp ult i16 %21, 2
  br i1 %22, label %23, label %35

23:                                               ; preds = %19
  %24 = getelementptr inbounds nuw i8, ptr %3, i64 20
  %25 = load i32, ptr %24, align 1, !tbaa !11
  %.not = icmp eq i32 %25, 0
  br i1 %.not, label %35, label %26

26:                                               ; preds = %23
  %27 = getelementptr inbounds nuw i8, ptr %3, i64 24
  %28 = load i32, ptr %27, align 1, !tbaa !11
  %.not13 = icmp ult i32 %28, %13
  br i1 %.not13, label %35, label %29

29:                                               ; preds = %26
  %30 = getelementptr inbounds nuw i8, ptr %3, i64 28
  %31 = load i32, ptr %30, align 1, !tbaa !11
  %.not14 = icmp ult i32 %31, %13
  br i1 %.not14, label %35, label %32

32:                                               ; preds = %29
  %33 = getelementptr inbounds nuw i8, ptr %3, i64 32
  %34 = load i32, ptr %33, align 1, !tbaa !11
  %.not15 = icmp ult i32 %34, %13
  br i1 %.not15, label %35, label %36

35:                                               ; preds = %32, %29, %26, %23, %19, %15, %10, %6, %1
  br label %36

36:                                               ; preds = %32, %35
  %.0 = phi i32 [ 0, %35 ], [ 100, %32 ]
  ret i32 %.0
}